target datalayout = "e-m:e-p270:32:32-p271:32:32-p272:64:64-i64:64-i128:128-f80:128-n8:16:32:64-S128"
target triple = "x86_64-pc-linux-gnu"

%"class.std::__cxx11::basic_string" = type { %"struct.std::__cxx11::basic_string<char>::_Alloc_hider", i64, %union.anon }
%"struct.std::__cxx11::basic_string<char>::_Alloc_hider" = type { ptr }
%union.anon = type { i64, [8 x i8] }
%"class.std::allocator.0" = type { i8 }
%"class.std::vector.3" = type { %"struct.std::_Vector_base.4" }
%"struct.std::_Vector_base.4" = type { %"struct.std::_Vector_base<int, std::allocator<int>>::_Vector_impl" }
%"struct.std::_Vector_base<int, std::allocator<int>>::_Vector_impl" = type { %"struct.std::_Vector_base<int, std::allocator<int>>::_Vector_impl_data" }
%"struct.std::_Vector_base<int, std::allocator<int>>::_Vector_impl_data" = type { ptr, ptr, ptr }
%"class.std::vector.13" = type { %"struct.std::_Vector_base.14" }
%"struct.std::_Vector_base.14" = type { %"struct.std::_Vector_base<cv::Mat, std::allocator<cv::Mat>>::_Vector_impl" }
%"struct.std::_Vector_base<cv::Mat, std::allocator<cv::Mat>>::_Vector_impl" = type { %"struct.std::_Vector_base<cv::Mat, std::allocator<cv::Mat>>::_Vector_impl_data" }
%"struct.std::_Vector_base<cv::Mat, std::allocator<cv::Mat>>::_Vector_impl_data" = type { ptr, ptr, ptr }
%"struct.cv::Ptr" = type { %"class.std::shared_ptr" }
%"class.std::shared_ptr" = type { %"class.std::__shared_ptr" }
%"class.std::__shared_ptr" = type { ptr, %"class.std::__shared_count" }
%"class.std::__shared_count" = type { ptr }
%"class.std::vector.19" = type { %"struct.std::_Vector_base.20" }
%"struct.std::_Vector_base.20" = type { %"struct.std::_Vector_base<std::vector<int>, std::allocator<std::vector<int>>>::_Vector_impl" }
%"struct.std::_Vector_base<std::vector<int>, std::allocator<std::vector<int>>>::_Vector_impl" = type { %"struct.std::_Vector_base<std::vector<int>, std::allocator<std::vector<int>>>::_Vector_impl_data" }
%"struct.std::_Vector_base<std::vector<int>, std::allocator<std::vector<int>>>::_Vector_impl_data" = type { ptr, ptr, ptr }
%"class.cv::dnn::LayerEinsumImpl" = type <{ %"class.cv::dnn::dnn4_v20240521::EinsumLayer.base", [4 x i8], %"struct.cv::Ptr", i32, [4 x i8], %"class.std::vector.19", %"class.std::vector.13", %"class.std::vector.19", %"class.std::vector.3", %"class.std::__cxx11::basic_string", %"class.std::__cxx11::basic_string", %"class.std::__cxx11::basic_string", %"class.std::vector.24", i8, [7 x i8], %"class.std::vector.19", %"class.std::vector.3", %"class.std::vector.3", %"class.std::vector.3", %"struct.std::array", %"struct.std::array", i32, [4 x i8], i64, %"struct.cv::dnn::FastGemmOpt", [3 x i8] }>
%"class.cv::dnn::dnn4_v20240521::EinsumLayer.base" = type { %"class.cv::dnn::dnn4_v20240521::Layer.base" }
%"class.cv::dnn::dnn4_v20240521::Layer.base" = type <{ %"class.cv::Algorithm", %"class.std::vector.13", %"class.std::__cxx11::basic_string", %"class.std::__cxx11::basic_string", i32 }>
%"class.cv::Algorithm" = type { ptr }
%"class.std::vector.24" = type { %"struct.std::_Vector_base.25" }
%"struct.std::_Vector_base.25" = type { %"struct.std::_Vector_base<std::__cxx11::basic_string<char>, std::allocator<std::__cxx11::basic_string<char>>>::_Vector_impl" }
%"struct.std::_Vector_base<std::__cxx11::basic_string<char>, std::allocator<std::__cxx11::basic_string<char>>>::_Vector_impl" = type { %"struct.std::_Vector_base<std::__cxx11::basic_string<char>, std::allocator<std::__cxx11::basic_string<char>>>::_Vector_impl_data" }
%"struct.std::_Vector_base<std::__cxx11::basic_string<char>, std::allocator<std::__cxx11::basic_string<char>>>::_Vector_impl_data" = type { ptr, ptr, ptr }
%"struct.std::array" = type { [52 x i32] }
%"struct.cv::dnn::FastGemmOpt" = type { i8, i8, i8, i8, i8 }

@.str.1 = private unnamed_addr constant [131 x i8] c"generated/home/dtcxzyw/WorkSpace/Projects/compilers/llvm-opt-benchmark/bench/opencv/opencv/modules/dnn/src/layers/einsum_layer.cpp\00", align 1
@.str.29 = private unnamed_addr constant [4 x i8] c"...\00", align 1
@.str.30 = private unnamed_addr constant [93 x i8] c"Provided output subscript does not include ellipsis while Inputs subscrits constain ellipsis\00", align 1
@__func__._ZN2cv3dnn15LayerEinsumImpl23validateOutputSubscriptEv = private unnamed_addr constant [24 x i8] c"validateOutputSubscript\00", align 1

; Function Attrs: mustprogress uwtable
define hidden void @_ZN2cv3dnn15LayerEinsumImpl23validateOutputSubscriptEv(ptr noundef nonnull align 8 dereferenceable(888) %0) #4 align 2 personality ptr @__gxx_personality_v0 {
  %2 = alloca ptr, align 8
  %3 = alloca %"class.std::__cxx11::basic_string", align 8
  %4 = alloca %"class.std::allocator.0", align 1
  %5 = alloca ptr, align 8
  %6 = alloca i32, align 4
  store ptr %0, ptr %2, align 8
  %7 = load ptr, ptr %2, align 8
  %8 = getelementptr inbounds %"class.cv::dnn::LayerEinsumImpl", ptr %7, i32 0, i32 13
  %9 = load i8, ptr %8, align 8
  %10 = trunc i8 %9 to i1
  br i1 %10, label %11, label %33

11:                                               ; preds = %1
  %12 = getelementptr inbounds %"class.cv::dnn::LayerEinsumImpl", ptr %7, i32 0, i32 23
  %13 = load i64, ptr %12, align 8
  %14 = icmp ugt i64 %13, 0
  br i1 %14, label %15, label %32

15:                                               ; preds = %11
  %16 = getelementptr inbounds %"class.cv::dnn::LayerEinsumImpl", ptr %7, i32 0, i32 10
  %17 = call noundef i64 @_ZNKSt7__cxx1112basic_stringIcSt11char_traitsIcESaIcEE4findEPKcm(ptr noundef nonnull align 8 dereferenceable(32) %16, ptr noundef @.str.29, i64 noundef 0) #3
  %18 = icmp eq i64 %17, -1
  br i1 %18, label %19, label %31

19:                                               ; preds = %15
  call void @_ZNSaIcEC1Ev(ptr noundef nonnull align 1 dereferenceable(1) %4) #3
  invoke void @_ZNSt7__cxx1112basic_stringIcSt11char_traitsIcESaIcEEC1EPKcRKS3_(ptr noundef nonnull align 8 dereferenceable(32) %3, ptr noundef @.str.30, ptr noundef nonnull align 1 dereferenceable(1) %4)
          to label %20 unwind label %22

20:                                               ; preds = %19
  invoke void @_ZN2cv5errorEiRKNSt7__cxx1112basic_stringIcSt11char_traitsIcESaIcEEEPKcS9_i(i32 noundef -2, ptr noundef nonnull align 8 dereferenceable(32) %3, ptr noundef @__func__._ZN2cv3dnn15LayerEinsumImpl23validateOutputSubscriptEv, ptr noundef @.str.1, i32 noundef 775) #16
          to label %21 unwind label %26

21:                                               ; preds = %20
  unreachable

22:                                               ; preds = %19
  %23 = landingpad { ptr, i32 }
          cleanup
  %24 = extractvalue { ptr, i32 } %23, 0
  store ptr %24, ptr %5, align 8
  %25 = extractvalue { ptr, i32 } %23, 1
  store i32 %25, ptr %6, align 4
  br label %30

26:                                               ; preds = %20
  %27 = landingpad { ptr, i32 }
          cleanup
  %28 = extractvalue { ptr, i32 } %27, 0
  store ptr %28, ptr %5, align 8
  %29 = extractvalue { ptr, i32 } %27, 1
  store i32 %29, ptr %6, align 4
  call void @_ZNSt7__cxx1112basic_stringIcSt11char_traitsIcESaIcEED1Ev(ptr noundef nonnull align 8 dereferenceable(32) %3) #3
  br label %30

30:                                               ; preds = %26, %22
  call void @_ZNSaIcED1Ev(ptr noundef nonnull align 1 dereferenceable(1) %4) #3
  br label %34

31:                                               ; preds = %15
  br label %32

32:                                               ; preds = %31, %11
  br label %33

33:                                               ; preds = %32, %1
  ret void

34:                                               ; preds = %30
  %35 = load ptr, ptr %5, align 8
  %36 = load i32, ptr %6, align 4
  %37 = insertvalue { ptr, i32 } poison, ptr %35, 0
  %38 = insertvalue { ptr, i32 } %37, i32 %36, 1
  resume { ptr, i32 } %38
}