; Function Attrs: mustprogress uwtable
define hidden void @_ZN2cv3dnn15LayerEinsumImpl23validateOutputSubscriptEv(ptr noundef nonnull align 8 dereferenceable(888) %0) local_unnamed_addr #3 align 2 personality ptr @__gxx_personality_v0 {
  %2 = alloca %"class.std::__cxx11::basic_string", align 8
  %3 = alloca %"class.std::allocator.0", align 1
  %4 = getelementptr inbounds i8, ptr %0, i64 344
  %5 = load i8, ptr %4, align 8
  %6 = trunc i8 %5 to i1
  %7 = getelementptr inbounds i8, ptr %0, i64 872
  %8 = load i64, ptr %7, align 8
  %.not = icmp ne i64 %8, 0
  %or.cond.not = select i1 %6, i1 %.not, i1 false
  br i1 %or.cond.not, label %9, label %21

9:                                                ; preds = %1
  %10 = getelementptr inbounds i8, ptr %0, i64 256
  %11 = tail call noundef i64 @_ZNKSt7__cxx1112basic_stringIcSt11char_traitsIcESaIcEE4findEPKcm(ptr noundef nonnull align 8 dereferenceable(32) %10, ptr noundef nonnull @.str.29, i64 noundef 0) #21
  %12 = icmp eq i64 %11, -1
  br i1 %12, label %13, label %21

13:                                               ; preds = %9
  call void @_ZNSaIcEC1Ev(ptr noundef nonnull align 1 dereferenceable(1) %3) #21
  invoke void @_ZNSt7__cxx1112basic_stringIcSt11char_traitsIcESaIcEEC1EPKcRKS3_(ptr noundef nonnull align 8 dereferenceable(32) %2, ptr noundef nonnull @.str.30, ptr noundef nonnull align 1 dereferenceable(1) %3)
          to label %14 unwind label %16

14:                                               ; preds = %13
  invoke void @_ZN2cv5errorEiRKNSt7__cxx1112basic_stringIcSt11char_traitsIcESaIcEEEPKcS9_i(i32 noundef -2, ptr noundef nonnull align 8 dereferenceable(32) %2, ptr noundef nonnull @__func__._ZN2cv3dnn15LayerEinsumImpl23validateOutputSubscriptEv, ptr noundef nonnull @.str.1, i32 noundef 775) #22
          to label %15 unwind label %18

15:                                               ; preds = %14
  unreachable

16:                                               ; preds = %13
  %17 = landingpad { ptr, i32 }
          cleanup
  br label %20

18:                                               ; preds = %14
  %19 = landingpad { ptr, i32 }
          cleanup
  call void @_ZNSt7__cxx1112basic_stringIcSt11char_traitsIcESaIcEED1Ev(ptr noundef nonnull align 8 dereferenceable(32) %2) #21
  br label %20

20:                                               ; preds = %18, %16
  %.pn = phi { ptr, i32 } [ %19, %18 ], [ %17, %16 ]
  call void @_ZNSaIcED1Ev(ptr noundef nonnull align 1 dereferenceable(1) %3) #21
  resume { ptr, i32 } %.pn

21:                                               ; preds = %9, %1
  ret void
}